target datalayout = "e-m:e-p270:32:32-p271:32:32-p272:64:64-i64:64-i128:128-f80:128-n8:16:32:64-S128"
target triple = "x86_64-pc-linux-gnu"

%struct.PJconsts = type { ptr, ptr, ptr, ptr, ptr, ptr, ptr, ptr, ptr, ptr, ptr, ptr, i32, ptr, ptr, ptr, ptr, ptr, ptr, ptr, ptr, double, double, double, double, double, double, double, double, double, double, double, double, double, double, double, double, double, double, double, double, double, double, i32, i32, i32, i32, i32, i32, i32, i32, i32, i32, i32, ptr, ptr, ptr, ptr, ptr, ptr, double, double, double, double, double, double, double, double, double, double, double, i32, [7 x double], i32, ptr, ptr, double, double, i32, [4 x i8], %"class.std::shared_ptr", i8, double, i8, %"class.std::__cxx11::basic_string", %"class.std::__cxx11::basic_string", %"class.std::__cxx11::basic_string", i8, %"class.std::vector", i32, %"class.std::vector.3", i32, i8, i8, i8, ptr }
%"class.std::shared_ptr" = type { %"class.std::__shared_ptr" }
%"class.std::__shared_ptr" = type { ptr, %"class.std::__shared_count" }
%"class.std::__shared_count" = type { ptr }
%"class.std::__cxx11::basic_string" = type { %"struct.std::__cxx11::basic_string<char>::_Alloc_hider", i64, %union.anon }
%"struct.std::__cxx11::basic_string<char>::_Alloc_hider" = type { ptr }
%union.anon = type { i64, [8 x i8] }
%"class.std::vector" = type { %"struct.std::_Vector_base" }
%"struct.std::_Vector_base" = type { %"struct.std::_Vector_base<osgeo::proj::operation::GridDescription, std::allocator<osgeo::proj::operation::GridDescription>>::_Vector_impl" }
%"struct.std::_Vector_base<osgeo::proj::operation::GridDescription, std::allocator<osgeo::proj::operation::GridDescription>>::_Vector_impl" = type { %"struct.std::_Vector_base<osgeo::proj::operation::GridDescription, std::allocator<osgeo::proj::operation::GridDescription>>::_Vector_impl_data" }
%"struct.std::_Vector_base<osgeo::proj::operation::GridDescription, std::allocator<osgeo::proj::operation::GridDescription>>::_Vector_impl_data" = type { ptr, ptr, ptr }
%"class.std::vector.3" = type { %"struct.std::_Vector_base.4" }
%"struct.std::_Vector_base.4" = type { %"struct.std::_Vector_base<PJCoordOperation, std::allocator<PJCoordOperation>>::_Vector_impl" }
%"struct.std::_Vector_base<PJCoordOperation, std::allocator<PJCoordOperation>>::_Vector_impl" = type { %"struct.std::_Vector_base<PJCoordOperation, std::allocator<PJCoordOperation>>::_Vector_impl_data" }
%"struct.std::_Vector_base<PJCoordOperation, std::allocator<PJCoordOperation>>::_Vector_impl_data" = type { ptr, ptr, ptr }
%"struct.(anonymous namespace)::pj_opaque_molodensky" = type { double, double, double, double, double, i32 }
%struct.PJ_XYZ = type { double, double, double }
%struct.PJ_LPZ = type { double, double, double }
%union.PJ_COORD = type { [4 x double] }
%struct.PJ_XY = type { double, double }
%struct.PJ_LP = type { double, double }

; Function Attrs: mustprogress uwtable
define internal void @_ZL24pj_molodensky_forward_3d6PJ_LPZP8PJconsts(ptr dead_on_unwind noalias writable sret(%struct.PJ_XYZ) align 8 %0, ptr noundef byval(%struct.PJ_LPZ) align 8 %1, ptr noundef %2) #0 {
  %4 = alloca ptr, align 8
  %5 = alloca ptr, align 8
  %6 = alloca %union.PJ_COORD, align 8
  %7 = alloca %struct.PJ_LPZ, align 8
  %8 = alloca %struct.PJ_LPZ, align 8
  %9 = alloca %struct.PJ_LPZ, align 8
  %10 = alloca %struct.PJ_LPZ, align 8
  %11 = alloca %union.PJ_COORD, align 8
  %12 = alloca i32, align 4
  store ptr %2, ptr %4, align 8, !tbaa !3
  call void @llvm.lifetime.start.p0(i64 8, ptr %5) #9
  %13 = load ptr, ptr %4, align 8, !tbaa !3
  %14 = getelementptr inbounds nuw %struct.PJconsts, ptr %13, i32 0, i32 11
  %15 = load ptr, ptr %14, align 8, !tbaa !43
  store ptr %15, ptr %5, align 8, !tbaa !41
  call void @llvm.lifetime.start.p0(i64 32, ptr %6) #9
  call void @llvm.memset.p0.i64(ptr align 8 %6, i8 0, i64 32, i1 false)
  call void @llvm.memcpy.p0.p0.i64(ptr align 8 %6, ptr align 8 %1, i64 24, i1 false), !tbaa.struct !62
  %16 = load ptr, ptr %5, align 8, !tbaa !41
  %17 = getelementptr inbounds nuw %"struct.(anonymous namespace)::pj_opaque_molodensky", ptr %16, i32 0, i32 5
  %18 = load i32, ptr %17, align 8, !tbaa !59
  %19 = icmp ne i32 %18, 0
  br i1 %19, label %20, label %22

20:                                               ; preds = %3
  call void @llvm.lifetime.start.p0(i64 24, ptr %7) #9
  call void @llvm.memcpy.p0.p0.i64(ptr align 8 %8, ptr align 8 %1, i64 24, i1 false), !tbaa.struct !62
  %21 = load ptr, ptr %4, align 8, !tbaa !3
  call void @_ZL20calc_abridged_params6PJ_LPZP8PJconsts(ptr dead_on_unwind writable sret(%struct.PJ_LPZ) align 8 %7, ptr noundef byval(%struct.PJ_LPZ) align 8 %8, ptr noundef %21)
  call void @llvm.memcpy.p0.p0.i64(ptr align 8 %1, ptr align 8 %7, i64 24, i1 false), !tbaa.struct !62
  call void @llvm.lifetime.end.p0(i64 24, ptr %7) #9
  br label %24

22:                                               ; preds = %3
  call void @llvm.lifetime.start.p0(i64 24, ptr %9) #9
  call void @llvm.memcpy.p0.p0.i64(ptr align 8 %10, ptr align 8 %1, i64 24, i1 false), !tbaa.struct !62
  %23 = load ptr, ptr %4, align 8, !tbaa !3
  call void @_ZL20calc_standard_params6PJ_LPZP8PJconsts(ptr dead_on_unwind writable sret(%struct.PJ_LPZ) align 8 %9, ptr noundef byval(%struct.PJ_LPZ) align 8 %10, ptr noundef %23)
  call void @llvm.memcpy.p0.p0.i64(ptr align 8 %1, ptr align 8 %9, i64 24, i1 false), !tbaa.struct !62
  call void @llvm.lifetime.end.p0(i64 24, ptr %9) #9
  br label %24

24:                                               ; preds = %22, %20
  %25 = getelementptr inbounds nuw %struct.PJ_LPZ, ptr %1, i32 0, i32 0
  %26 = load double, ptr %25, align 8, !tbaa !64
  %27 = fcmp oeq double %26, 0x7FF0000000000000
  br i1 %27, label %28, label %31

28:                                               ; preds = %24
  %29 = load ptr, ptr %4, align 8, !tbaa !3
  %30 = call i32 @proj_errno_set(ptr noundef %29, i32 noundef 2050)
  call void @llvm.lifetime.start.p0(i64 32, ptr %11) #9
  call void @_Z16proj_coord_errorv(ptr dead_on_unwind writable sret(%union.PJ_COORD) align 8 %11)
  call void @llvm.memcpy.p0.p0.i64(ptr align 8 %0, ptr align 8 %11, i64 24, i1 false), !tbaa.struct !62
  call void @llvm.lifetime.end.p0(i64 32, ptr %11) #9
  store i32 1, ptr %12, align 4
  br label %47

31:                                               ; preds = %24
  %32 = getelementptr inbounds nuw %struct.PJ_LPZ, ptr %1, i32 0, i32 1
  %33 = load double, ptr %32, align 8, !tbaa !66
  %34 = getelementptr inbounds nuw %struct.PJ_LPZ, ptr %6, i32 0, i32 1
  %35 = load double, ptr %34, align 8, !tbaa !52
  %36 = fadd double %35, %33
  store double %36, ptr %34, align 8, !tbaa !52
  %37 = getelementptr inbounds nuw %struct.PJ_LPZ, ptr %1, i32 0, i32 0
  %38 = load double, ptr %37, align 8, !tbaa !64
  %39 = getelementptr inbounds nuw %struct.PJ_LPZ, ptr %6, i32 0, i32 0
  %40 = load double, ptr %39, align 8, !tbaa !52
  %41 = fadd double %40, %38
  store double %41, ptr %39, align 8, !tbaa !52
  %42 = getelementptr inbounds nuw %struct.PJ_LPZ, ptr %1, i32 0, i32 2
  %43 = load double, ptr %42, align 8, !tbaa !67
  %44 = getelementptr inbounds nuw %struct.PJ_LPZ, ptr %6, i32 0, i32 2
  %45 = load double, ptr %44, align 8, !tbaa !52
  %46 = fadd double %45, %43
  store double %46, ptr %44, align 8, !tbaa !52
  call void @llvm.memcpy.p0.p0.i64(ptr align 8 %0, ptr align 8 %6, i64 24, i1 false), !tbaa.struct !62
  store i32 1, ptr %12, align 4
  br label %47

47:                                               ; preds = %31, %28
  call void @llvm.lifetime.end.p0(i64 32, ptr %6) #9
  call void @llvm.lifetime.end.p0(i64 8, ptr %5) #9
  ret void
}

; Function Attrs: mustprogress uwtable
define internal { double, double } @_ZL24pj_molodensky_forward_2d5PJ_LPP8PJconsts(double %0, double %1, ptr noundef %2) #0 {
  %4 = alloca %struct.PJ_XY, align 8
  %5 = alloca %struct.PJ_LP, align 8
  %6 = alloca ptr, align 8
  %7 = alloca %union.PJ_COORD, align 8
  %8 = alloca %struct.PJ_XYZ, align 8
  %9 = alloca %struct.PJ_LPZ, align 8
  %10 = getelementptr inbounds nuw { double, double }, ptr %5, i32 0, i32 0
  store double %0, ptr %10, align 8
  %11 = getelementptr inbounds nuw { double, double }, ptr %5, i32 0, i32 1
  store double %1, ptr %11, align 8
  store ptr %2, ptr %6, align 8, !tbaa !3
  call void @llvm.lifetime.start.p0(i64 32, ptr %7) #9
  call void @llvm.memset.p0.i64(ptr align 8 %7, i8 0, i64 32, i1 false)
  call void @llvm.memcpy.p0.p0.i64(ptr align 8 %7, ptr align 8 %5, i64 16, i1 false), !tbaa.struct !68
  call void @llvm.lifetime.start.p0(i64 24, ptr %8) #9
  call void @llvm.memcpy.p0.p0.i64(ptr align 8 %9, ptr align 8 %7, i64 24, i1 false), !tbaa.struct !62
  %12 = load ptr, ptr %6, align 8, !tbaa !3
  call void @_ZL24pj_molodensky_forward_3d6PJ_LPZP8PJconsts(ptr dead_on_unwind writable sret(%struct.PJ_XYZ) align 8 %8, ptr noundef byval(%struct.PJ_LPZ) align 8 %9, ptr noundef %12)
  call void @llvm.memcpy.p0.p0.i64(ptr align 8 %7, ptr align 8 %8, i64 24, i1 false), !tbaa.struct !62
  call void @llvm.memcpy.p0.p0.i64(ptr align 8 %4, ptr align 8 %7, i64 16, i1 false), !tbaa.struct !68
  call void @llvm.lifetime.end.p0(i64 24, ptr %8) #9
  call void @llvm.lifetime.end.p0(i64 32, ptr %7) #9
  %13 = load { double, double }, ptr %4, align 8
  ret { double, double } %13
}