; Function Attrs: mustprogress uwtable
define internal { double, double } @_ZL24pj_molodensky_forward_2d5PJ_LPP8PJconsts(double %0, double %1, ptr noundef %2) #0 {
  %4 = alloca %struct.PJ_LPZ, align 8
  %5 = alloca %struct.PJ_LPZ, align 8
  %6 = alloca %union.PJ_COORD, align 8
  %7 = alloca %struct.PJ_LPZ, align 8
  call void @llvm.lifetime.start.p0(i64 24, ptr nonnull %7)
  store double %0, ptr %7, align 8
  %.sroa.2.0..sroa_idx = getelementptr inbounds nuw i8, ptr %7, i64 8
  store double %1, ptr %.sroa.2.0..sroa_idx, align 8
  %.sroa.3.0..sroa_idx = getelementptr inbounds nuw i8, ptr %7, i64 16
  store i64 0, ptr %.sroa.3.0..sroa_idx, align 8
  %8 = getelementptr inbounds nuw i8, ptr %2, i64 88
  %9 = load ptr, ptr %8, align 8, !tbaa !40, !noalias !68
  %10 = getelementptr inbounds nuw i8, ptr %9, i64 40
  %11 = load i32, ptr %10, align 8, !tbaa !55, !noalias !68
  %.not.i = icmp eq i32 %11, 0
  br i1 %.not.i, label %13, label %12

12:                                               ; preds = %3
  call void @llvm.lifetime.start.p0(i64 24, ptr nonnull %4) #9, !noalias !68
  call fastcc void @_ZL20calc_abridged_params6PJ_LPZP8PJconsts(ptr dead_on_unwind noalias writable align 8 %4, ptr noundef nonnull byval(%struct.PJ_LPZ) align 8 %7, ptr noundef nonnull %2), !noalias !68
  call void @llvm.memcpy.p0.p0.i64(ptr noundef nonnull align 8 dereferenceable(24) %7, ptr noundef nonnull align 8 dereferenceable(24) %4, i64 24, i1 false), !tbaa.struct !67, !noalias !68
  call void @llvm.lifetime.end.p0(i64 24, ptr nonnull %4) #9, !noalias !68
  br label %14

13:                                               ; preds = %3
  call void @llvm.lifetime.start.p0(i64 24, ptr nonnull %5) #9, !noalias !68
  call fastcc void @_ZL20calc_standard_params6PJ_LPZP8PJconsts(ptr dead_on_unwind noalias writable align 8 %5, ptr noundef nonnull byval(%struct.PJ_LPZ) align 8 %7, ptr noundef nonnull %2), !noalias !68
  call void @llvm.memcpy.p0.p0.i64(ptr noundef nonnull align 8 dereferenceable(24) %7, ptr noundef nonnull align 8 dereferenceable(24) %5, i64 24, i1 false), !tbaa.struct !67, !noalias !68
  call void @llvm.lifetime.end.p0(i64 24, ptr nonnull %5) #9, !noalias !68
  br label %14

14:                                               ; preds = %13, %12
  %15 = load double, ptr %7, align 8, !tbaa !60, !noalias !68
  %16 = fcmp oeq double %15, 0x7FF0000000000000
  br i1 %16, label %17, label %19

17:                                               ; preds = %14
  %18 = tail call i32 @proj_errno_set(ptr noundef nonnull %2, i32 noundef 2050), !noalias !68
  call void @llvm.lifetime.start.p0(i64 32, ptr nonnull %6) #9, !noalias !68
  call void @_Z16proj_coord_errorv(ptr dead_on_unwind nonnull writable sret(%union.PJ_COORD) align 8 %6), !noalias !68
  %.sroa.010.0.copyload = load double, ptr %6, align 8, !tbaa !59
  %.sroa.5.0..sroa_idx = getelementptr inbounds nuw i8, ptr %6, i64 8
  %.sroa.5.0.copyload = load double, ptr %.sroa.5.0..sroa_idx, align 8, !tbaa !59
  call void @llvm.lifetime.end.p0(i64 32, ptr nonnull %6) #9, !noalias !68
  br label %_ZL24pj_molodensky_forward_3d6PJ_LPZP8PJconsts.exit

19:                                               ; preds = %14
  %20 = load double, ptr %.sroa.2.0..sroa_idx, align 8, !tbaa !62, !noalias !68
  %21 = fadd double %1, %20
  %22 = fadd double %0, %15
  br label %_ZL24pj_molodensky_forward_3d6PJ_LPZP8PJconsts.exit

_ZL24pj_molodensky_forward_3d6PJ_LPZP8PJconsts.exit: ; preds = %17, %19
  %.sroa.010.0 = phi double [ %.sroa.010.0.copyload, %17 ], [ %22, %19 ]
  %.sroa.5.0 = phi double [ %.sroa.5.0.copyload, %17 ], [ %21, %19 ]
  call void @llvm.lifetime.end.p0(i64 24, ptr nonnull %7)
  %.fca.0.insert = insertvalue { double, double } poison, double %.sroa.010.0, 0
  %.fca.1.insert = insertvalue { double, double } %.fca.0.insert, double %.sroa.5.0, 1
  ret { double, double } %.fca.1.insert
}